target datalayout = "e-m:e-p270:32:32-p271:32:32-p272:64:64-i64:64-i128:128-f80:128-n8:16:32:64-S128"
target triple = "x86_64-pc-linux-gnu"

%struct.Gia_Man_t_ = type { ptr, ptr, i32, i32, i32, i32, ptr, ptr, i32, i32, i32, ptr, ptr, %struct.Vec_Int_t_, %struct.Vec_Int_t_, i32, i32, i32, %struct.Vec_Int_t_, ptr, ptr, ptr, i32, i32, i32, i32, ptr, ptr, ptr, ptr, ptr, i32, i32, ptr, i32, ptr, ptr, ptr, ptr, ptr, ptr, ptr, ptr, ptr, ptr, ptr, ptr, ptr, ptr, ptr, ptr, ptr, ptr, %struct.Vec_Int_t_, %struct.Vec_Int_t_, ptr, ptr, ptr, ptr, ptr, ptr, ptr, ptr, ptr, ptr, ptr, ptr, ptr, ptr, ptr, ptr, ptr, ptr, ptr, ptr, ptr, i32, float, float, ptr, ptr, i32, ptr, ptr, ptr, ptr, ptr, ptr, ptr, ptr, ptr, ptr, ptr, ptr, ptr, ptr, ptr, i64, i64, ptr, ptr, i32, i32, i32, i32, i32, i32, i32, i32, i32, i32, i32, i32, ptr, ptr, ptr, ptr, ptr, ptr, ptr, ptr, i32, i32, i32, ptr, i32, i32, ptr, ptr, ptr, ptr, ptr, ptr, i32, i32, ptr, %struct.Vec_Int_t_, %struct.Vec_Int_t_, %struct.Vec_Int_t_, ptr, ptr, ptr, i32, i32, i32, i32, ptr, ptr, ptr, ptr, ptr }
%struct.Vec_Int_t_ = type { i32, i32, ptr }
%struct.Gia_Obj_t_ = type <{ i64, i32 }>

@.str.2 = private unnamed_addr constant [31 x i8] c"Gia_ManCheckChoices: Member %d\00", align 1
@.str.3 = private unnamed_addr constant [35 x i8] c" of a choice node has %d fanouts.\0A\00", align 1

; Function Attrs: inlinehint nounwind uwtable
define internal ptr @Vec_IntAlloc(i32 noundef %0) #2 {
  %2 = alloca i32, align 4
  %3 = alloca ptr, align 8
  store i32 %0, ptr %2, align 4, !tbaa !26
  call void @llvm.lifetime.start.p0(i64 8, ptr %3) #12
  %4 = call noalias ptr @malloc(i64 noundef 16) #15
  store ptr %4, ptr %3, align 8, !tbaa !77
  %5 = load i32, ptr %2, align 4, !tbaa !26
  %6 = icmp sgt i32 %5, 0
  br i1 %6, label %7, label %11

7:                                                ; preds = %1
  %8 = load i32, ptr %2, align 4, !tbaa !26
  %9 = icmp slt i32 %8, 16
  br i1 %9, label %10, label %11

10:                                               ; preds = %7
  store i32 16, ptr %2, align 4, !tbaa !26
  br label %11

11:                                               ; preds = %10, %7, %1
  %12 = load ptr, ptr %3, align 8, !tbaa !77
  %13 = getelementptr inbounds nuw %struct.Vec_Int_t_, ptr %12, i32 0, i32 1
  store i32 0, ptr %13, align 4, !tbaa !78
  %14 = load i32, ptr %2, align 4, !tbaa !26
  %15 = load ptr, ptr %3, align 8, !tbaa !77
  %16 = getelementptr inbounds nuw %struct.Vec_Int_t_, ptr %15, i32 0, i32 0
  store i32 %14, ptr %16, align 8, !tbaa !125
  %17 = load ptr, ptr %3, align 8, !tbaa !77
  %18 = getelementptr inbounds nuw %struct.Vec_Int_t_, ptr %17, i32 0, i32 0
  %19 = load i32, ptr %18, align 8, !tbaa !125
  %20 = icmp ne i32 %19, 0
  br i1 %20, label %21, label %28

21:                                               ; preds = %11
  %22 = load ptr, ptr %3, align 8, !tbaa !77
  %23 = getelementptr inbounds nuw %struct.Vec_Int_t_, ptr %22, i32 0, i32 0
  %24 = load i32, ptr %23, align 8, !tbaa !125
  %25 = sext i32 %24 to i64
  %26 = mul i64 4, %25
  %27 = call noalias ptr @malloc(i64 noundef %26) #15
  br label %29

28:                                               ; preds = %11
  br label %29

29:                                               ; preds = %28, %21
  %30 = phi ptr [ %27, %21 ], [ null, %28 ]
  %31 = load ptr, ptr %3, align 8, !tbaa !77
  %32 = getelementptr inbounds nuw %struct.Vec_Int_t_, ptr %31, i32 0, i32 2
  store ptr %30, ptr %32, align 8, !tbaa !112
  %33 = load ptr, ptr %3, align 8, !tbaa !77
  call void @llvm.lifetime.end.p0(i64 8, ptr %3) #12
  ret ptr %33
}

; Function Attrs: inlinehint nounwind uwtable
define internal void @Vec_IntFree(ptr noundef %0) #2 {
  %2 = alloca ptr, align 8
  store ptr %0, ptr %2, align 8, !tbaa !77
  %3 = load ptr, ptr %2, align 8, !tbaa !77
  %4 = getelementptr inbounds nuw %struct.Vec_Int_t_, ptr %3, i32 0, i32 2
  %5 = load ptr, ptr %4, align 8, !tbaa !112
  %6 = icmp ne ptr %5, null
  br i1 %6, label %7, label %13

7:                                                ; preds = %1
  %8 = load ptr, ptr %2, align 8, !tbaa !77
  %9 = getelementptr inbounds nuw %struct.Vec_Int_t_, ptr %8, i32 0, i32 2
  %10 = load ptr, ptr %9, align 8, !tbaa !112
  call void @free(ptr noundef %10) #12
  %11 = load ptr, ptr %2, align 8, !tbaa !77
  %12 = getelementptr inbounds nuw %struct.Vec_Int_t_, ptr %11, i32 0, i32 2
  store ptr null, ptr %12, align 8, !tbaa !112
  br label %14

13:                                               ; preds = %1
  br label %14

14:                                               ; preds = %13, %7
  %15 = load ptr, ptr %2, align 8, !tbaa !77
  %16 = icmp ne ptr %15, null
  br i1 %16, label %17, label %19

17:                                               ; preds = %14
  %18 = load ptr, ptr %2, align 8, !tbaa !77
  call void @free(ptr noundef %18) #12
  store ptr null, ptr %2, align 8, !tbaa !77
  br label %20

19:                                               ; preds = %14
  br label %20

20:                                               ; preds = %19, %17
  ret void
}

; Function Attrs: inlinehint nounwind uwtable
define internal i32 @Gia_ObjRefNumId(ptr noundef %0, i32 noundef %1) #2 {
  %3 = alloca ptr, align 8
  %4 = alloca i32, align 4
  store ptr %0, ptr %3, align 8, !tbaa !3
  store i32 %1, ptr %4, align 4, !tbaa !26
  %5 = load ptr, ptr %3, align 8, !tbaa !3
  %6 = getelementptr inbounds nuw %struct.Gia_Man_t_, ptr %5, i32 0, i32 19
  %7 = load ptr, ptr %6, align 8, !tbaa !110
  %8 = load i32, ptr %4, align 4, !tbaa !26
  %9 = sext i32 %8 to i64
  %10 = getelementptr inbounds i32, ptr %7, i64 %9
  %11 = load i32, ptr %10, align 4, !tbaa !26
  ret i32 %11
}

; Function Attrs: inlinehint nounwind uwtable
define internal i32 @Vec_IntEntry(ptr noundef %0, i32 noundef %1) #2 {
  %3 = alloca ptr, align 8
  %4 = alloca i32, align 4
  store ptr %0, ptr %3, align 8, !tbaa !77
  store i32 %1, ptr %4, align 4, !tbaa !26
  %5 = load ptr, ptr %3, align 8, !tbaa !77
  %6 = getelementptr inbounds nuw %struct.Vec_Int_t_, ptr %5, i32 0, i32 2
  %7 = load ptr, ptr %6, align 8, !tbaa !112
  %8 = load i32, ptr %4, align 4, !tbaa !26
  %9 = sext i32 %8 to i64
  %10 = getelementptr inbounds i32, ptr %7, i64 %9
  %11 = load i32, ptr %10, align 4, !tbaa !26
  ret i32 %11
}

; Function Attrs: inlinehint nounwind uwtable
define internal void @Vec_IntWriteEntry(ptr noundef %0, i32 noundef %1, i32 noundef %2) #2 {
  %4 = alloca ptr, align 8
  %5 = alloca i32, align 4
  %6 = alloca i32, align 4
  store ptr %0, ptr %4, align 8, !tbaa !77
  store i32 %1, ptr %5, align 4, !tbaa !26
  store i32 %2, ptr %6, align 4, !tbaa !26
  %7 = load i32, ptr %6, align 4, !tbaa !26
  %8 = load ptr, ptr %4, align 8, !tbaa !77
  %9 = getelementptr inbounds nuw %struct.Vec_Int_t_, ptr %8, i32 0, i32 2
  %10 = load ptr, ptr %9, align 8, !tbaa !112
  %11 = load i32, ptr %5, align 4, !tbaa !26
  %12 = sext i32 %11 to i64
  %13 = getelementptr inbounds i32, ptr %10, i64 %12
  store i32 %7, ptr %13, align 4, !tbaa !26
  ret void
}

; Function Attrs: inlinehint nounwind uwtable
define internal i32 @Gia_ObjSibl(ptr noundef %0, i32 noundef %1) #2 {
  %3 = alloca ptr, align 8
  %4 = alloca i32, align 4
  store ptr %0, ptr %3, align 8, !tbaa !3
  store i32 %1, ptr %4, align 4, !tbaa !26
  %5 = load ptr, ptr %3, align 8, !tbaa !3
  %6 = getelementptr inbounds nuw %struct.Gia_Man_t_, ptr %5, i32 0, i32 29
  %7 = load ptr, ptr %6, align 8, !tbaa !72
  %8 = icmp ne ptr %7, null
  br i1 %8, label %9, label %17

9:                                                ; preds = %2
  %10 = load ptr, ptr %3, align 8, !tbaa !3
  %11 = getelementptr inbounds nuw %struct.Gia_Man_t_, ptr %10, i32 0, i32 29
  %12 = load ptr, ptr %11, align 8, !tbaa !72
  %13 = load i32, ptr %4, align 4, !tbaa !26
  %14 = sext i32 %13 to i64
  %15 = getelementptr inbounds i32, ptr %12, i64 %14
  %16 = load i32, ptr %15, align 4, !tbaa !26
  br label %18

17:                                               ; preds = %2
  br label %18

18:                                               ; preds = %17, %9
  %19 = phi i32 [ %16, %9 ], [ 0, %17 ]
  ret i32 %19
}

; Function Attrs: inlinehint nounwind uwtable
define internal i32 @Gia_ObjIsAnd(ptr noundef %0) #2 {
  %2 = alloca ptr, align 8
  store ptr %0, ptr %2, align 8, !tbaa !42
  %3 = load ptr, ptr %2, align 8, !tbaa !42
  %4 = load i64, ptr %3, align 4
  %5 = lshr i64 %4, 31
  %6 = and i64 %5, 1
  %7 = trunc i64 %6 to i32
  %8 = icmp ne i32 %7, 0
  br i1 %8, label %15, label %9

9:                                                ; preds = %1
  %10 = load ptr, ptr %2, align 8, !tbaa !42
  %11 = load i64, ptr %10, align 4
  %12 = and i64 %11, 536870911
  %13 = trunc i64 %12 to i32
  %14 = icmp ne i32 %13, 536870911
  br label %15

15:                                               ; preds = %9, %1
  %16 = phi i1 [ false, %1 ], [ %14, %9 ]
  %17 = zext i1 %16 to i32
  ret i32 %17
}

; Function Attrs: inlinehint nounwind uwtable
define internal ptr @Gia_ManObj(ptr noundef %0, i32 noundef %1) #2 {
  %3 = alloca ptr, align 8
  %4 = alloca i32, align 4
  store ptr %0, ptr %3, align 8, !tbaa !3
  store i32 %1, ptr %4, align 4, !tbaa !26
  %5 = load ptr, ptr %3, align 8, !tbaa !3
  %6 = getelementptr inbounds nuw %struct.Gia_Man_t_, ptr %5, i32 0, i32 6
  %7 = load ptr, ptr %6, align 8, !tbaa !73
  %8 = load i32, ptr %4, align 4, !tbaa !26
  %9 = sext i32 %8 to i64
  %10 = getelementptr inbounds %struct.Gia_Obj_t_, ptr %7, i64 %9
  ret ptr %10
}

; Function Attrs: inlinehint nounwind uwtable
define internal ptr @Vec_IntStart(i32 noundef %0) #2 {
  %2 = alloca i32, align 4
  %3 = alloca ptr, align 8
  store i32 %0, ptr %2, align 4, !tbaa !26
  call void @llvm.lifetime.start.p0(i64 8, ptr %3) #12
  %4 = load i32, ptr %2, align 4, !tbaa !26
  %5 = call ptr @Vec_IntAlloc(i32 noundef %4)
  store ptr %5, ptr %3, align 8, !tbaa !77
  %6 = load i32, ptr %2, align 4, !tbaa !26
  %7 = load ptr, ptr %3, align 8, !tbaa !77
  %8 = getelementptr inbounds nuw %struct.Vec_Int_t_, ptr %7, i32 0, i32 1
  store i32 %6, ptr %8, align 4, !tbaa !78
  %9 = load ptr, ptr %3, align 8, !tbaa !77
  %10 = getelementptr inbounds nuw %struct.Vec_Int_t_, ptr %9, i32 0, i32 2
  %11 = load ptr, ptr %10, align 8, !tbaa !112
  %12 = icmp ne ptr %11, null
  br i1 %12, label %13, label %20

13:                                               ; preds = %1
  %14 = load ptr, ptr %3, align 8, !tbaa !77
  %15 = getelementptr inbounds nuw %struct.Vec_Int_t_, ptr %14, i32 0, i32 2
  %16 = load ptr, ptr %15, align 8, !tbaa !112
  %17 = load i32, ptr %2, align 4, !tbaa !26
  %18 = sext i32 %17 to i64
  %19 = mul i64 4, %18
  call void @llvm.memset.p0.i64(ptr align 4 %16, i8 0, i64 %19, i1 false)
  br label %20

20:                                               ; preds = %13, %1
  %21 = load ptr, ptr %3, align 8, !tbaa !77
  call void @llvm.lifetime.end.p0(i64 8, ptr %3) #12
  ret ptr %21
}

; Function Attrs: inlinehint nounwind uwtable
define internal i32 @Gia_ManObjNum(ptr noundef %0) #2 {
  %2 = alloca ptr, align 8
  store ptr %0, ptr %2, align 8, !tbaa !3
  %3 = load ptr, ptr %2, align 8, !tbaa !3
  %4 = getelementptr inbounds nuw %struct.Gia_Man_t_, ptr %3, i32 0, i32 4
  %5 = load i32, ptr %4, align 8, !tbaa !75
  ret i32 %5
}

; Function Attrs: nounwind uwtable
define i32 @Gia_ManTestChoices(ptr noundef %0) #0 {
  %2 = alloca i32, align 4
  %3 = alloca ptr, align 8
  %4 = alloca ptr, align 8
  %5 = alloca i32, align 4
  %6 = alloca ptr, align 8
  %7 = alloca i32, align 4
  store ptr %0, ptr %3, align 8, !tbaa !3
  call void @llvm.lifetime.start.p0(i64 8, ptr %4) #12
  call void @llvm.lifetime.start.p0(i64 4, ptr %5) #12
  call void @llvm.lifetime.start.p0(i64 8, ptr %6) #12
  %8 = load ptr, ptr %3, align 8, !tbaa !3
  %9 = call i32 @Gia_ManObjNum(ptr noundef %8)
  %10 = call ptr @Vec_IntStart(i32 noundef %9)
  store ptr %10, ptr %6, align 8, !tbaa !77
  store i32 0, ptr %5, align 4, !tbaa !26
  br label %11

11:                                               ; preds = %41, %1
  %12 = load i32, ptr %5, align 4, !tbaa !26
  %13 = load ptr, ptr %3, align 8, !tbaa !3
  %14 = getelementptr inbounds nuw %struct.Gia_Man_t_, ptr %13, i32 0, i32 4
  %15 = load i32, ptr %14, align 8, !tbaa !75
  %16 = icmp slt i32 %12, %15
  br i1 %16, label %17, label %22

17:                                               ; preds = %11
  %18 = load ptr, ptr %3, align 8, !tbaa !3
  %19 = load i32, ptr %5, align 4, !tbaa !26
  %20 = call ptr @Gia_ManObj(ptr noundef %18, i32 noundef %19)
  store ptr %20, ptr %4, align 8, !tbaa !42
  %21 = icmp ne ptr %20, null
  br label %22

22:                                               ; preds = %17, %11
  %23 = phi i1 [ false, %11 ], [ %21, %17 ]
  br i1 %23, label %24, label %44

24:                                               ; preds = %22
  %25 = load ptr, ptr %4, align 8, !tbaa !42
  %26 = call i32 @Gia_ObjIsAnd(ptr noundef %25)
  %27 = icmp ne i32 %26, 0
  br i1 %27, label %29, label %28

28:                                               ; preds = %24
  br label %40

29:                                               ; preds = %24
  %30 = load ptr, ptr %3, align 8, !tbaa !3
  %31 = load i32, ptr %5, align 4, !tbaa !26
  %32 = call i32 @Gia_ObjSibl(ptr noundef %30, i32 noundef %31)
  %33 = icmp ne i32 %32, 0
  br i1 %33, label %34, label %39

34:                                               ; preds = %29
  %35 = load ptr, ptr %6, align 8, !tbaa !77
  %36 = load ptr, ptr %3, align 8, !tbaa !3
  %37 = load i32, ptr %5, align 4, !tbaa !26
  %38 = call i32 @Gia_ObjSibl(ptr noundef %36, i32 noundef %37)
  call void @Vec_IntWriteEntry(ptr noundef %35, i32 noundef %38, i32 noundef 1)
  br label %39

39:                                               ; preds = %34, %29
  br label %40

40:                                               ; preds = %39, %28
  br label %41

41:                                               ; preds = %40
  %42 = load i32, ptr %5, align 4, !tbaa !26
  %43 = add nsw i32 %42, 1
  store i32 %43, ptr %5, align 4, !tbaa !26
  br label %11, !llvm.loop !109

44:                                               ; preds = %22
  %45 = load ptr, ptr %3, align 8, !tbaa !3
  call void @Gia_ManCreateRefs(ptr noundef %45)
  store i32 0, ptr %5, align 4, !tbaa !26
  br label %46

46:                                               ; preds = %96, %44
  %47 = load i32, ptr %5, align 4, !tbaa !26
  %48 = load ptr, ptr %3, align 8, !tbaa !3
  %49 = getelementptr inbounds nuw %struct.Gia_Man_t_, ptr %48, i32 0, i32 4
  %50 = load i32, ptr %49, align 8, !tbaa !75
  %51 = icmp slt i32 %47, %50
  br i1 %51, label %52, label %57

52:                                               ; preds = %46
  %53 = load ptr, ptr %3, align 8, !tbaa !3
  %54 = load i32, ptr %5, align 4, !tbaa !26
  %55 = call ptr @Gia_ManObj(ptr noundef %53, i32 noundef %54)
  store ptr %55, ptr %4, align 8, !tbaa !42
  %56 = icmp ne ptr %55, null
  br label %57

57:                                               ; preds = %52, %46
  %58 = phi i1 [ false, %46 ], [ %56, %52 ]
  br i1 %58, label %59, label %99

59:                                               ; preds = %57
  %60 = load ptr, ptr %4, align 8, !tbaa !42
  %61 = call i32 @Gia_ObjIsAnd(ptr noundef %60)
  %62 = icmp ne i32 %61, 0
  br i1 %62, label %64, label %63

63:                                               ; preds = %59
  br label %95

64:                                               ; preds = %59
  %65 = load ptr, ptr %6, align 8, !tbaa !77
  %66 = load i32, ptr %5, align 4, !tbaa !26
  %67 = call i32 @Vec_IntEntry(ptr noundef %65, i32 noundef %66)
  %68 = icmp ne i32 %67, 0
  br i1 %68, label %69, label %94

69:                                               ; preds = %64
  %70 = load ptr, ptr %3, align 8, !tbaa !3
  %71 = load i32, ptr %5, align 4, !tbaa !26
  %72 = call i32 @Gia_ObjRefNumId(ptr noundef %70, i32 noundef %71)
  %73 = icmp sgt i32 %72, 0
  br i1 %73, label %74, label %94

74:                                               ; preds = %69
  %75 = load i32, ptr %5, align 4, !tbaa !26
  %76 = call i32 (ptr, ...) @printf(ptr noundef @.str.2, i32 noundef %75)
  %77 = load ptr, ptr %3, align 8, !tbaa !3
  %78 = load i32, ptr %5, align 4, !tbaa !26
  %79 = call i32 @Gia_ObjRefNumId(ptr noundef %77, i32 noundef %78)
  %80 = call i32 (ptr, ...) @printf(ptr noundef @.str.3, i32 noundef %79)
  %81 = load ptr, ptr %3, align 8, !tbaa !3
  %82 = getelementptr inbounds nuw %struct.Gia_Man_t_, ptr %81, i32 0, i32 19
  %83 = load ptr, ptr %82, align 8, !tbaa !110
  %84 = icmp ne ptr %83, null
  br i1 %84, label %85, label %91

85:                                               ; preds = %74
  %86 = load ptr, ptr %3, align 8, !tbaa !3
  %87 = getelementptr inbounds nuw %struct.Gia_Man_t_, ptr %86, i32 0, i32 19
  %88 = load ptr, ptr %87, align 8, !tbaa !110
  call void @free(ptr noundef %88) #12
  %89 = load ptr, ptr %3, align 8, !tbaa !3
  %90 = getelementptr inbounds nuw %struct.Gia_Man_t_, ptr %89, i32 0, i32 19
  store ptr null, ptr %90, align 8, !tbaa !110
  br label %92

91:                                               ; preds = %74
  br label %92

92:                                               ; preds = %91, %85
  %93 = load ptr, ptr %6, align 8, !tbaa !77
  call void @Vec_IntFree(ptr noundef %93)
  store i32 0, ptr %2, align 4
  store i32 1, ptr %7, align 4
  br label %113

94:                                               ; preds = %69, %64
  br label %95

95:                                               ; preds = %94, %63
  br label %96

96:                                               ; preds = %95
  %97 = load i32, ptr %5, align 4, !tbaa !26
  %98 = add nsw i32 %97, 1
  store i32 %98, ptr %5, align 4, !tbaa !26
  br label %46, !llvm.loop !111

99:                                               ; preds = %57
  %100 = load ptr, ptr %3, align 8, !tbaa !3
  %101 = getelementptr inbounds nuw %struct.Gia_Man_t_, ptr %100, i32 0, i32 19
  %102 = load ptr, ptr %101, align 8, !tbaa !110
  %103 = icmp ne ptr %102, null
  br i1 %103, label %104, label %110

104:                                              ; preds = %99
  %105 = load ptr, ptr %3, align 8, !tbaa !3
  %106 = getelementptr inbounds nuw %struct.Gia_Man_t_, ptr %105, i32 0, i32 19
  %107 = load ptr, ptr %106, align 8, !tbaa !110
  call void @free(ptr noundef %107) #12
  %108 = load ptr, ptr %3, align 8, !tbaa !3
  %109 = getelementptr inbounds nuw %struct.Gia_Man_t_, ptr %108, i32 0, i32 19
  store ptr null, ptr %109, align 8, !tbaa !110
  br label %111

110:                                              ; preds = %99
  br label %111

111:                                              ; preds = %110, %104
  %112 = load ptr, ptr %6, align 8, !tbaa !77
  call void @Vec_IntFree(ptr noundef %112)
  store i32 1, ptr %2, align 4
  store i32 1, ptr %7, align 4
  br label %113

113:                                              ; preds = %111, %92
  call void @llvm.lifetime.end.p0(i64 8, ptr %6) #12
  call void @llvm.lifetime.end.p0(i64 4, ptr %5) #12
  call void @llvm.lifetime.end.p0(i64 8, ptr %4) #12
  %114 = load i32, ptr %2, align 4
  ret i32 %114
}