; Function Attrs: nounwind uwtable
define range(i32 0, 2) i32 @Gia_ManTestChoices(ptr noundef %0) local_unnamed_addr #0 {
  %2 = getelementptr i8, ptr %0, i64 24
  %.val52 = load i32, ptr %2, align 8, !tbaa !73
  %3 = add i32 %.val52, -1
  %or.cond.i.i = icmp ult i32 %3, 15
  %spec.store.select.i.i = select i1 %or.cond.i.i, i32 16, i32 %.val52
  %.not.i.i = icmp eq i32 %spec.store.select.i.i, 0
  br i1 %.not.i.i, label %Vec_IntStart.exit, label %Vec_IntAlloc.exit.i

Vec_IntAlloc.exit.i:                              ; preds = %1
  %4 = sext i32 %spec.store.select.i.i to i64
  %5 = shl nsw i64 %4, 2
  %6 = tail call noalias ptr @malloc(i64 noundef %5) #19
  %.not.i = icmp eq ptr %6, null
  br i1 %.not.i, label %Vec_IntStart.exit, label %7

7:                                                ; preds = %Vec_IntAlloc.exit.i
  %8 = sext i32 %.val52 to i64
  %9 = shl nsw i64 %8, 2
  tail call void @llvm.memset.p0.i64(ptr nonnull align 4 %6, i8 0, i64 %9, i1 false)
  br label %Vec_IntStart.exit

Vec_IntStart.exit:                                ; preds = %1, %Vec_IntAlloc.exit.i, %7
  %10 = phi ptr [ null, %Vec_IntAlloc.exit.i ], [ %6, %7 ], [ null, %1 ]
  %11 = icmp sgt i32 %.val52, 0
  br i1 %11, label %.lr.ph, label %.critedge

.lr.ph:                                           ; preds = %Vec_IntStart.exit
  %12 = getelementptr i8, ptr %0, i64 32
  %.val48 = load ptr, ptr %12, align 8, !tbaa !41
  %.not = icmp eq ptr %.val48, null
  %13 = getelementptr i8, ptr %0, i64 208
  br i1 %.not, label %.critedge, label %.lr.ph.split.preheader

.lr.ph.split.preheader:                           ; preds = %.lr.ph
  %14 = zext nneg i32 %.val52 to i64
  br label %.lr.ph.split

.lr.ph.split:                                     ; preds = %.lr.ph.split.preheader, %Gia_ObjSibl.exit.thread
  %indvars.iv = phi i64 [ 0, %.lr.ph.split.preheader ], [ %indvars.iv.next, %Gia_ObjSibl.exit.thread ]
  %15 = getelementptr inbounds nuw %struct.Gia_Obj_t_, ptr %.val48, i64 %indvars.iv
  %.val50 = load i64, ptr %15, align 4
  %16 = and i64 %.val50, 2147483648
  %.not.i58 = icmp ne i64 %16, 0
  %17 = and i64 %.val50, 536870911
  %18 = icmp eq i64 %17, 536870911
  %narrow.i.not = or i1 %.not.i58, %18
  br i1 %narrow.i.not, label %Gia_ObjSibl.exit.thread, label %19

19:                                               ; preds = %.lr.ph.split
  %.val53 = load ptr, ptr %13, align 8, !tbaa !71
  %.not.i59 = icmp eq ptr %.val53, null
  br i1 %.not.i59, label %Gia_ObjSibl.exit.thread, label %Gia_ObjSibl.exit

Gia_ObjSibl.exit:                                 ; preds = %19
  %20 = getelementptr inbounds nuw i32, ptr %.val53, i64 %indvars.iv
  %21 = load i32, ptr %20, align 4, !tbaa !40
  %.not47 = icmp eq i32 %21, 0
  br i1 %.not47, label %Gia_ObjSibl.exit.thread, label %Gia_ObjSibl.exit61

Gia_ObjSibl.exit61:                               ; preds = %Gia_ObjSibl.exit
  %22 = sext i32 %21 to i64
  %23 = getelementptr inbounds i32, ptr %10, i64 %22
  store i32 1, ptr %23, align 4, !tbaa !40
  br label %Gia_ObjSibl.exit.thread

Gia_ObjSibl.exit.thread:                          ; preds = %19, %.lr.ph.split, %Gia_ObjSibl.exit61, %Gia_ObjSibl.exit
  %indvars.iv.next = add nuw nsw i64 %indvars.iv, 1
  %24 = icmp samesign ult i64 %indvars.iv.next, %14
  br i1 %24, label %.lr.ph.split, label %.critedge, !llvm.loop !105

.critedge:                                        ; preds = %Gia_ObjSibl.exit.thread, %.lr.ph, %Vec_IntStart.exit
  tail call void @Gia_ManCreateRefs(ptr noundef nonnull %0) #17
  %25 = load i32, ptr %2, align 8, !tbaa !73
  %26 = icmp sgt i32 %25, 0
  br i1 %26, label %.lr.ph75, label %.critedge2

.lr.ph75:                                         ; preds = %.critedge
  %27 = getelementptr i8, ptr %0, i64 32
  %.val = load ptr, ptr %27, align 8, !tbaa !41
  %.not41 = icmp eq ptr %.val, null
  %28 = getelementptr i8, ptr %0, i64 144
  br i1 %.not41, label %.critedge2, label %.lr.ph75.split.preheader

.lr.ph75.split.preheader:                         ; preds = %.lr.ph75
  %wide.trip.count = zext nneg i32 %25 to i64
  br label %.lr.ph75.split

.lr.ph75.split:                                   ; preds = %.lr.ph75.split.preheader, %48
  %indvars.iv80 = phi i64 [ 0, %.lr.ph75.split.preheader ], [ %indvars.iv.next81, %48 ]
  %29 = getelementptr inbounds nuw %struct.Gia_Obj_t_, ptr %.val, i64 %indvars.iv80
  %.val49 = load i64, ptr %29, align 4
  %30 = and i64 %.val49, 2147483648
  %.not.i62 = icmp ne i64 %30, 0
  %31 = and i64 %.val49, 536870911
  %32 = icmp eq i64 %31, 536870911
  %narrow.i63.not = or i1 %.not.i62, %32
  br i1 %narrow.i63.not, label %48, label %33

33:                                               ; preds = %.lr.ph75.split
  %34 = getelementptr inbounds nuw i32, ptr %10, i64 %indvars.iv80
  %35 = load i32, ptr %34, align 4, !tbaa !40
  %.not44 = icmp eq i32 %35, 0
  br i1 %.not44, label %48, label %36

36:                                               ; preds = %33
  %.val56 = load ptr, ptr %28, align 8, !tbaa !106
  %37 = getelementptr inbounds nuw i32, ptr %.val56, i64 %indvars.iv80
  %38 = load i32, ptr %37, align 4, !tbaa !40
  %39 = icmp sgt i32 %38, 0
  br i1 %39, label %40, label %48

40:                                               ; preds = %36
  %41 = trunc nuw nsw i64 %indvars.iv80 to i32
  %42 = tail call i32 (ptr, ...) @printf(ptr noundef nonnull dereferenceable(1) @.str.2, i32 noundef %41)
  %.val57 = load ptr, ptr %28, align 8, !tbaa !106
  %43 = getelementptr inbounds nuw i32, ptr %.val57, i64 %indvars.iv80
  %44 = load i32, ptr %43, align 4, !tbaa !40
  %45 = tail call i32 (ptr, ...) @printf(ptr noundef nonnull dereferenceable(1) @.str.3, i32 noundef %44)
  %46 = load ptr, ptr %28, align 8, !tbaa !106
  %.not45 = icmp eq ptr %46, null
  br i1 %.not45, label %Vec_IntFree.exit66.sink.split, label %47

47:                                               ; preds = %40
  tail call void @free(ptr noundef nonnull %46) #17
  store ptr null, ptr %28, align 8, !tbaa !106
  br label %Vec_IntFree.exit66.sink.split

48:                                               ; preds = %.lr.ph75.split, %36, %33
  %indvars.iv.next81 = add nuw nsw i64 %indvars.iv80, 1
  %exitcond.not = icmp eq i64 %indvars.iv.next81, %wide.trip.count
  br i1 %exitcond.not, label %.critedge2, label %.lr.ph75.split, !llvm.loop !107

.critedge2:                                       ; preds = %48, %.lr.ph75, %.critedge
  %49 = getelementptr inbounds nuw i8, ptr %0, i64 144
  %50 = load ptr, ptr %49, align 8, !tbaa !106
  %.not42 = icmp eq ptr %50, null
  br i1 %.not42, label %52, label %51

51:                                               ; preds = %.critedge2
  tail call void @free(ptr noundef nonnull %50) #17
  store ptr null, ptr %49, align 8, !tbaa !106
  br label %52

52:                                               ; preds = %.critedge2, %51
  %.not.i65 = icmp eq ptr %10, null
  br i1 %.not.i65, label %Vec_IntFree.exit66, label %Vec_IntFree.exit66.sink.split

Vec_IntFree.exit66.sink.split:                    ; preds = %52, %47, %40
  %.0.ph = phi i32 [ 0, %40 ], [ 0, %47 ], [ 1, %52 ]
  tail call void @free(ptr noundef nonnull %10) #17
  br label %Vec_IntFree.exit66

Vec_IntFree.exit66:                               ; preds = %Vec_IntFree.exit66.sink.split, %52
  %.0 = phi i32 [ 1, %52 ], [ %.0.ph, %Vec_IntFree.exit66.sink.split ]
  ret i32 %.0
}